target datalayout = "e-m:e-p270:32:32-p271:32:32-p272:64:64-i64:64-i128:128-f80:128-n8:16:32:64-S128"
target triple = "x86_64-pc-linux-gnu"

%struct.Tuplestorestate = type { i32, i32, i8, i8, i8, i8, i64, i64, i64, i64, ptr, ptr, ptr, ptr, ptr, ptr, ptr, i32, i32, i32, i8, ptr, i32, i32, i32, i32, i64 }

; Function Attrs: nounwind uwtable
define internal ptr @copytup_heap(ptr noundef %0, ptr noundef %1) #0 {
  %3 = alloca ptr, align 8
  %4 = alloca ptr, align 8
  %5 = alloca ptr, align 8
  store ptr %0, ptr %3, align 8
  store ptr %1, ptr %4, align 8
  call void @llvm.lifetime.start.p0(i64 8, ptr %5) #7
  %6 = load ptr, ptr %4, align 8
  %7 = call ptr @minimal_tuple_from_heap_tuple(ptr noundef %6)
  store ptr %7, ptr %5, align 8
  %8 = load ptr, ptr %5, align 8
  %9 = call i64 @GetMemoryChunkSpace(ptr noundef %8)
  %10 = load ptr, ptr %3, align 8
  %11 = getelementptr inbounds nuw %struct.Tuplestorestate, ptr %10, i32 0, i32 7
  %12 = load i64, ptr %11, align 8
  %13 = sub i64 %12, %9
  store i64 %13, ptr %11, align 8
  %14 = load ptr, ptr %5, align 8
  call void @llvm.lifetime.end.p0(i64 8, ptr %5) #7
  ret ptr %14
}