; Function Attrs: nounwind uwtable
define internal noundef ptr @copytup_heap(ptr noundef captures(none) %0, ptr noundef %1) #0 {
  %3 = tail call ptr @minimal_tuple_from_heap_tuple(ptr noundef %1) #9
  %4 = tail call i64 @GetMemoryChunkSpace(ptr noundef %3) #9
  %5 = getelementptr inbounds nuw i8, ptr %0, i64 24
  %6 = load i64, ptr %5, align 8
  %7 = sub i64 %6, %4
  store i64 %7, ptr %5, align 8
  ret ptr %3
}